; Function Attrs: nounwind uwtable
define dso_local noundef ptr @lpFirst(ptr noundef %0) local_unnamed_addr #3 {
  %2 = alloca ptr, align 8
  %3 = getelementptr inbounds nuw i8, ptr %0, i64 6
  %4 = load i8, ptr %3, align 1, !tbaa !5
  %5 = icmp eq i8 %4, -1
  br i1 %5, label %11, label %6

6:                                                ; preds = %1
  %7 = load i32, ptr %0, align 1
  %8 = zext i32 %7 to i64
  call void @llvm.lifetime.start.p0(i64 8, ptr nonnull %2)
  store ptr %3, ptr %2, align 8, !tbaa !13
  %9 = call i32 @lpValidateNext(ptr noundef nonnull %0, ptr noundef nonnull %2, i64 noundef %8)
  %.not.i = icmp eq i32 %9, 0
  br i1 %.not.i, label %10, label %lpAssertValidEntry.exit, !prof !12

10:                                               ; preds = %6
  tail call void @_serverAssert(ptr noundef nonnull @.str.30, ptr noundef nonnull @.str.1, i32 noundef 1664) #20
  tail call void @abort() #21
  unreachable

lpAssertValidEntry.exit:                          ; preds = %6
  call void @llvm.lifetime.end.p0(i64 8, ptr nonnull %2)
  br label %11

11:                                               ; preds = %1, %lpAssertValidEntry.exit
  %.0 = phi ptr [ %3, %lpAssertValidEntry.exit ], [ null, %1 ]
  ret ptr %.0
}